target datalayout = "e-m:e-p270:32:32-p271:32:32-p272:64:64-i64:64-i128:128-f80:128-n8:16:32:64-S128"
target triple = "x86_64-pc-linux-gnu"

; Function Attrs: inlinehint nounwind uwtable
define internal i32 @Abc_TtWordNum(i32 noundef %0) #2 {
  %2 = alloca i32, align 4
  store i32 %0, ptr %2, align 4, !tbaa !8
  %3 = load i32, ptr %2, align 4, !tbaa !8
  %4 = icmp sle i32 %3, 6
  br i1 %4, label %5, label %6

5:                                                ; preds = %1
  br label %10

6:                                                ; preds = %1
  %7 = load i32, ptr %2, align 4, !tbaa !8
  %8 = sub nsw i32 %7, 6
  %9 = shl i32 1, %8
  br label %10

10:                                               ; preds = %6, %5
  %11 = phi i32 [ 1, %5 ], [ %9, %6 ]
  ret i32 %11
}

; Function Attrs: inlinehint nounwind uwtable
define internal void @Abc_TtSwapAdjacent(ptr noundef %0, i32 noundef %1, i32 noundef %2) #2 {
  %4 = alloca ptr, align 8
  %5 = alloca i32, align 4
  %6 = alloca i32, align 4
  %7 = alloca i32, align 4
  %8 = alloca i32, align 4
  %9 = alloca ptr, align 8
  %10 = alloca ptr, align 8
  %11 = alloca i32, align 4
  %12 = alloca ptr, align 8
  %13 = alloca i32, align 4
  %14 = alloca i32, align 4
  %15 = alloca i64, align 8
  store ptr %0, ptr %4, align 8, !tbaa !3
  store i32 %1, ptr %5, align 4, !tbaa !8
  store i32 %2, ptr %6, align 4, !tbaa !8
  %16 = load i32, ptr %6, align 4, !tbaa !8
  %17 = icmp slt i32 %16, 5
  br i1 %17, label %18, label %75

18:                                               ; preds = %3
  call void @llvm.lifetime.start.p0(i64 4, ptr %7) #11
  call void @llvm.lifetime.start.p0(i64 4, ptr %8) #11
  %19 = load i32, ptr %6, align 4, !tbaa !8
  %20 = shl i32 1, %19
  store i32 %20, ptr %8, align 4, !tbaa !8
  store i32 0, ptr %7, align 4, !tbaa !8
  br label %21

21:                                               ; preds = %71, %18
  %22 = load i32, ptr %7, align 4, !tbaa !8
  %23 = load i32, ptr %5, align 4, !tbaa !8
  %24 = icmp slt i32 %22, %23
  br i1 %24, label %25, label %74

25:                                               ; preds = %21
  %26 = load ptr, ptr %4, align 8, !tbaa !3
  %27 = load i32, ptr %7, align 4, !tbaa !8
  %28 = sext i32 %27 to i64
  %29 = getelementptr inbounds i64, ptr %26, i64 %28
  %30 = load i64, ptr %29, align 8, !tbaa !18
  %31 = load i32, ptr %6, align 4, !tbaa !8
  %32 = sext i32 %31 to i64
  %33 = getelementptr inbounds [5 x [3 x i64]], ptr @s_PMasks, i64 0, i64 %32
  %34 = getelementptr inbounds [3 x i64], ptr %33, i64 0, i64 0
  %35 = load i64, ptr %34, align 8, !tbaa !18
  %36 = and i64 %30, %35
  %37 = load ptr, ptr %4, align 8, !tbaa !3
  %38 = load i32, ptr %7, align 4, !tbaa !8
  %39 = sext i32 %38 to i64
  %40 = getelementptr inbounds i64, ptr %37, i64 %39
  %41 = load i64, ptr %40, align 8, !tbaa !18
  %42 = load i32, ptr %6, align 4, !tbaa !8
  %43 = sext i32 %42 to i64
  %44 = getelementptr inbounds [5 x [3 x i64]], ptr @s_PMasks, i64 0, i64 %43
  %45 = getelementptr inbounds [3 x i64], ptr %44, i64 0, i64 1
  %46 = load i64, ptr %45, align 8, !tbaa !18
  %47 = and i64 %41, %46
  %48 = load i32, ptr %8, align 4, !tbaa !8
  %49 = zext i32 %48 to i64
  %50 = shl i64 %47, %49
  %51 = or i64 %36, %50
  %52 = load ptr, ptr %4, align 8, !tbaa !3
  %53 = load i32, ptr %7, align 4, !tbaa !8
  %54 = sext i32 %53 to i64
  %55 = getelementptr inbounds i64, ptr %52, i64 %54
  %56 = load i64, ptr %55, align 8, !tbaa !18
  %57 = load i32, ptr %6, align 4, !tbaa !8
  %58 = sext i32 %57 to i64
  %59 = getelementptr inbounds [5 x [3 x i64]], ptr @s_PMasks, i64 0, i64 %58
  %60 = getelementptr inbounds [3 x i64], ptr %59, i64 0, i64 2
  %61 = load i64, ptr %60, align 8, !tbaa !18
  %62 = and i64 %56, %61
  %63 = load i32, ptr %8, align 4, !tbaa !8
  %64 = zext i32 %63 to i64
  %65 = lshr i64 %62, %64
  %66 = or i64 %51, %65
  %67 = load ptr, ptr %4, align 8, !tbaa !3
  %68 = load i32, ptr %7, align 4, !tbaa !8
  %69 = sext i32 %68 to i64
  %70 = getelementptr inbounds i64, ptr %67, i64 %69
  store i64 %66, ptr %70, align 8, !tbaa !18
  br label %71

71:                                               ; preds = %25
  %72 = load i32, ptr %7, align 4, !tbaa !8
  %73 = add nsw i32 %72, 1
  store i32 %73, ptr %7, align 4, !tbaa !8
  br label %21, !llvm.loop !20

74:                                               ; preds = %21
  call void @llvm.lifetime.end.p0(i64 4, ptr %8) #11
  call void @llvm.lifetime.end.p0(i64 4, ptr %7) #11
  br label %162

75:                                               ; preds = %3
  %76 = load i32, ptr %6, align 4, !tbaa !8
  %77 = icmp eq i32 %76, 5
  br i1 %77, label %78, label %104

78:                                               ; preds = %75
  call void @llvm.lifetime.start.p0(i64 8, ptr %9) #11
  %79 = load ptr, ptr %4, align 8, !tbaa !3
  store ptr %79, ptr %9, align 8, !tbaa !12
  call void @llvm.lifetime.start.p0(i64 8, ptr %10) #11
  %80 = load ptr, ptr %4, align 8, !tbaa !3
  %81 = load i32, ptr %5, align 4, !tbaa !8
  %82 = sext i32 %81 to i64
  %83 = getelementptr inbounds i64, ptr %80, i64 %82
  store ptr %83, ptr %10, align 8, !tbaa !12
  br label %84

84:                                               ; preds = %100, %78
  %85 = load ptr, ptr %9, align 8, !tbaa !12
  %86 = load ptr, ptr %10, align 8, !tbaa !12
  %87 = icmp ult ptr %85, %86
  br i1 %87, label %88, label %103

88:                                               ; preds = %84
  call void @llvm.lifetime.start.p0(i64 4, ptr %11) #11
  %89 = load ptr, ptr %9, align 8, !tbaa !12
  %90 = getelementptr inbounds i32, ptr %89, i64 1
  %91 = load i32, ptr %90, align 4, !tbaa !8
  store i32 %91, ptr %11, align 4, !tbaa !8
  %92 = load ptr, ptr %9, align 8, !tbaa !12
  %93 = getelementptr inbounds i32, ptr %92, i64 2
  %94 = load i32, ptr %93, align 4, !tbaa !8
  %95 = load ptr, ptr %9, align 8, !tbaa !12
  %96 = getelementptr inbounds i32, ptr %95, i64 1
  store i32 %94, ptr %96, align 4, !tbaa !8
  %97 = load i32, ptr %11, align 4, !tbaa !8
  %98 = load ptr, ptr %9, align 8, !tbaa !12
  %99 = getelementptr inbounds i32, ptr %98, i64 2
  store i32 %97, ptr %99, align 4, !tbaa !8
  call void @llvm.lifetime.end.p0(i64 4, ptr %11) #11
  br label %100

100:                                              ; preds = %88
  %101 = load ptr, ptr %9, align 8, !tbaa !12
  %102 = getelementptr inbounds i32, ptr %101, i64 4
  store ptr %102, ptr %9, align 8, !tbaa !12
  br label %84, !llvm.loop !21

103:                                              ; preds = %84
  call void @llvm.lifetime.end.p0(i64 8, ptr %10) #11
  call void @llvm.lifetime.end.p0(i64 8, ptr %9) #11
  br label %161

104:                                              ; preds = %75
  call void @llvm.lifetime.start.p0(i64 8, ptr %12) #11
  %105 = load ptr, ptr %4, align 8, !tbaa !3
  %106 = load i32, ptr %5, align 4, !tbaa !8
  %107 = sext i32 %106 to i64
  %108 = getelementptr inbounds i64, ptr %105, i64 %107
  store ptr %108, ptr %12, align 8, !tbaa !3
  call void @llvm.lifetime.start.p0(i64 4, ptr %13) #11
  call void @llvm.lifetime.start.p0(i64 4, ptr %14) #11
  %109 = load i32, ptr %6, align 4, !tbaa !8
  %110 = call i32 @Abc_TtWordNum(i32 noundef %109)
  store i32 %110, ptr %14, align 4, !tbaa !8
  br label %111

111:                                              ; preds = %154, %104
  %112 = load ptr, ptr %4, align 8, !tbaa !3
  %113 = load ptr, ptr %12, align 8, !tbaa !3
  %114 = icmp ult ptr %112, %113
  br i1 %114, label %115, label %160

115:                                              ; preds = %111
  store i32 0, ptr %13, align 4, !tbaa !8
  br label %116

116:                                              ; preds = %150, %115
  %117 = load i32, ptr %13, align 4, !tbaa !8
  %118 = load i32, ptr %14, align 4, !tbaa !8
  %119 = icmp slt i32 %117, %118
  br i1 %119, label %120, label %153

120:                                              ; preds = %116
  call void @llvm.lifetime.start.p0(i64 8, ptr %15) #11
  %121 = load ptr, ptr %4, align 8, !tbaa !3
  %122 = load i32, ptr %13, align 4, !tbaa !8
  %123 = load i32, ptr %14, align 4, !tbaa !8
  %124 = add nsw i32 %122, %123
  %125 = sext i32 %124 to i64
  %126 = getelementptr inbounds i64, ptr %121, i64 %125
  %127 = load i64, ptr %126, align 8, !tbaa !18
  store i64 %127, ptr %15, align 8, !tbaa !18
  %128 = load ptr, ptr %4, align 8, !tbaa !3
  %129 = load i32, ptr %13, align 4, !tbaa !8
  %130 = load i32, ptr %14, align 4, !tbaa !8
  %131 = mul nsw i32 2, %130
  %132 = add nsw i32 %129, %131
  %133 = sext i32 %132 to i64
  %134 = getelementptr inbounds i64, ptr %128, i64 %133
  %135 = load i64, ptr %134, align 8, !tbaa !18
  %136 = load ptr, ptr %4, align 8, !tbaa !3
  %137 = load i32, ptr %13, align 4, !tbaa !8
  %138 = load i32, ptr %14, align 4, !tbaa !8
  %139 = add nsw i32 %137, %138
  %140 = sext i32 %139 to i64
  %141 = getelementptr inbounds i64, ptr %136, i64 %140
  store i64 %135, ptr %141, align 8, !tbaa !18
  %142 = load i64, ptr %15, align 8, !tbaa !18
  %143 = load ptr, ptr %4, align 8, !tbaa !3
  %144 = load i32, ptr %13, align 4, !tbaa !8
  %145 = load i32, ptr %14, align 4, !tbaa !8
  %146 = mul nsw i32 2, %145
  %147 = add nsw i32 %144, %146
  %148 = sext i32 %147 to i64
  %149 = getelementptr inbounds i64, ptr %143, i64 %148
  store i64 %142, ptr %149, align 8, !tbaa !18
  call void @llvm.lifetime.end.p0(i64 8, ptr %15) #11
  br label %150

150:                                              ; preds = %120
  %151 = load i32, ptr %13, align 4, !tbaa !8
  %152 = add nsw i32 %151, 1
  store i32 %152, ptr %13, align 4, !tbaa !8
  br label %116, !llvm.loop !22

153:                                              ; preds = %116
  br label %154

154:                                              ; preds = %153
  %155 = load i32, ptr %14, align 4, !tbaa !8
  %156 = mul nsw i32 4, %155
  %157 = load ptr, ptr %4, align 8, !tbaa !3
  %158 = sext i32 %156 to i64
  %159 = getelementptr inbounds i64, ptr %157, i64 %158
  store ptr %159, ptr %4, align 8, !tbaa !3
  br label %111, !llvm.loop !23

160:                                              ; preds = %111
  call void @llvm.lifetime.end.p0(i64 4, ptr %14) #11
  call void @llvm.lifetime.end.p0(i64 4, ptr %13) #11
  call void @llvm.lifetime.end.p0(i64 8, ptr %12) #11
  br label %161

161:                                              ; preds = %160, %103
  br label %162

162:                                              ; preds = %161, %74
  ret void
}

; Function Attrs: nounwind uwtable
define void @If_CutTruthPermute(ptr noundef %0, i32 noundef %1, i32 noundef %2, i32 noundef %3, ptr noundef %4, ptr noundef %5) #0 {
  %7 = alloca ptr, align 8
  %8 = alloca i32, align 4
  %9 = alloca i32, align 4
  %10 = alloca i32, align 4
  %11 = alloca ptr, align 8
  %12 = alloca ptr, align 8
  %13 = alloca i32, align 4
  %14 = alloca i32, align 4
  %15 = alloca float, align 4
  %16 = alloca i32, align 4
  %17 = alloca i32, align 4
  store ptr %0, ptr %7, align 8, !tbaa !3
  store i32 %1, ptr %8, align 4, !tbaa !8
  store i32 %2, ptr %9, align 4, !tbaa !8
  store i32 %3, ptr %10, align 4, !tbaa !8
  store ptr %4, ptr %11, align 8, !tbaa !10
  store ptr %5, ptr %12, align 8, !tbaa !12
  br label %18

18:                                               ; preds = %6, %98
  call void @llvm.lifetime.start.p0(i64 4, ptr %13) #11
  call void @llvm.lifetime.start.p0(i64 4, ptr %14) #11
  store i32 0, ptr %14, align 4, !tbaa !8
  store i32 0, ptr %13, align 4, !tbaa !8
  br label %19

19:                                               ; preds = %88, %18
  %20 = load i32, ptr %13, align 4, !tbaa !8
  %21 = load i32, ptr %8, align 4, !tbaa !8
  %22 = sub nsw i32 %21, 1
  %23 = icmp slt i32 %20, %22
  br i1 %23, label %24, label %91

24:                                               ; preds = %19
  %25 = load ptr, ptr %11, align 8, !tbaa !10
  %26 = load i32, ptr %13, align 4, !tbaa !8
  %27 = sext i32 %26 to i64
  %28 = getelementptr inbounds float, ptr %25, i64 %27
  %29 = load float, ptr %28, align 4, !tbaa !14
  %30 = load ptr, ptr %11, align 8, !tbaa !10
  %31 = load i32, ptr %13, align 4, !tbaa !8
  %32 = add nsw i32 %31, 1
  %33 = sext i32 %32 to i64
  %34 = getelementptr inbounds float, ptr %30, i64 %33
  %35 = load float, ptr %34, align 4, !tbaa !14
  %36 = fcmp oge float %29, %35
  br i1 %36, label %37, label %38

37:                                               ; preds = %24
  br label %88

38:                                               ; preds = %24
  call void @llvm.lifetime.start.p0(i64 4, ptr %15) #11
  %39 = load ptr, ptr %11, align 8, !tbaa !10
  %40 = load i32, ptr %13, align 4, !tbaa !8
  %41 = sext i32 %40 to i64
  %42 = getelementptr inbounds float, ptr %39, i64 %41
  %43 = load float, ptr %42, align 4, !tbaa !14
  store float %43, ptr %15, align 4, !tbaa !14
  %44 = load ptr, ptr %11, align 8, !tbaa !10
  %45 = load i32, ptr %13, align 4, !tbaa !8
  %46 = add nsw i32 %45, 1
  %47 = sext i32 %46 to i64
  %48 = getelementptr inbounds float, ptr %44, i64 %47
  %49 = load float, ptr %48, align 4, !tbaa !14
  %50 = load ptr, ptr %11, align 8, !tbaa !10
  %51 = load i32, ptr %13, align 4, !tbaa !8
  %52 = sext i32 %51 to i64
  %53 = getelementptr inbounds float, ptr %50, i64 %52
  store float %49, ptr %53, align 4, !tbaa !14
  %54 = load float, ptr %15, align 4, !tbaa !14
  %55 = load ptr, ptr %11, align 8, !tbaa !10
  %56 = load i32, ptr %13, align 4, !tbaa !8
  %57 = add nsw i32 %56, 1
  %58 = sext i32 %57 to i64
  %59 = getelementptr inbounds float, ptr %55, i64 %58
  store float %54, ptr %59, align 4, !tbaa !14
  call void @llvm.lifetime.end.p0(i64 4, ptr %15) #11
  call void @llvm.lifetime.start.p0(i64 4, ptr %16) #11
  %60 = load ptr, ptr %12, align 8, !tbaa !12
  %61 = load i32, ptr %13, align 4, !tbaa !8
  %62 = sext i32 %61 to i64
  %63 = getelementptr inbounds i32, ptr %60, i64 %62
  %64 = load i32, ptr %63, align 4, !tbaa !8
  store i32 %64, ptr %16, align 4, !tbaa !8
  %65 = load ptr, ptr %12, align 8, !tbaa !12
  %66 = load i32, ptr %13, align 4, !tbaa !8
  %67 = add nsw i32 %66, 1
  %68 = sext i32 %67 to i64
  %69 = getelementptr inbounds i32, ptr %65, i64 %68
  %70 = load i32, ptr %69, align 4, !tbaa !8
  %71 = load ptr, ptr %12, align 8, !tbaa !12
  %72 = load i32, ptr %13, align 4, !tbaa !8
  %73 = sext i32 %72 to i64
  %74 = getelementptr inbounds i32, ptr %71, i64 %73
  store i32 %70, ptr %74, align 4, !tbaa !8
  %75 = load i32, ptr %16, align 4, !tbaa !8
  %76 = load ptr, ptr %12, align 8, !tbaa !12
  %77 = load i32, ptr %13, align 4, !tbaa !8
  %78 = add nsw i32 %77, 1
  %79 = sext i32 %78 to i64
  %80 = getelementptr inbounds i32, ptr %76, i64 %79
  store i32 %75, ptr %80, align 4, !tbaa !8
  call void @llvm.lifetime.end.p0(i64 4, ptr %16) #11
  %81 = load ptr, ptr %7, align 8, !tbaa !3
  %82 = icmp ne ptr %81, null
  br i1 %82, label %83, label %87

83:                                               ; preds = %38
  %84 = load ptr, ptr %7, align 8, !tbaa !3
  %85 = load i32, ptr %10, align 4, !tbaa !8
  %86 = load i32, ptr %13, align 4, !tbaa !8
  call void @Abc_TtSwapAdjacent(ptr noundef %84, i32 noundef %85, i32 noundef %86)
  br label %87

87:                                               ; preds = %83, %38
  store i32 1, ptr %14, align 4, !tbaa !8
  br label %88

88:                                               ; preds = %87, %37
  %89 = load i32, ptr %13, align 4, !tbaa !8
  %90 = add nsw i32 %89, 1
  store i32 %90, ptr %13, align 4, !tbaa !8
  br label %19, !llvm.loop !16

91:                                               ; preds = %19
  %92 = load i32, ptr %14, align 4, !tbaa !8
  %93 = icmp ne i32 %92, 0
  br i1 %93, label %95, label %94

94:                                               ; preds = %91
  store i32 1, ptr %17, align 4
  br label %96

95:                                               ; preds = %91
  store i32 0, ptr %17, align 4
  br label %96

96:                                               ; preds = %95, %94
  call void @llvm.lifetime.end.p0(i64 4, ptr %14) #11
  call void @llvm.lifetime.end.p0(i64 4, ptr %13) #11
  %97 = load i32, ptr %17, align 4
  switch i32 %97, label %100 [
    i32 0, label %98
    i32 1, label %99
  ]

98:                                               ; preds = %96
  br label %18

99:                                               ; preds = %96
  ret void

100:                                              ; preds = %96
  unreachable
}