; Function Attrs: nofree norecurse nosync nounwind memory(argmem: readwrite) uwtable
define void @If_CutTruthPermute(ptr noundef %0, i32 noundef %1, i32 %2, i32 noundef %3, ptr noundef captures(none) %4, ptr noundef captures(none) %5) local_unnamed_addr #0 {
  %7 = icmp sgt i32 %1, 1
  %8 = sext i32 %3 to i64
  %9 = getelementptr inbounds i64, ptr %0, i64 %8
  %10 = icmp sgt i32 %3, 0
  %wide.trip.count72.i = zext nneg i32 %3 to i64
  br i1 %7, label %.split.us, label %.split48.us

.split.us:                                        ; preds = %6
  %11 = add nsw i32 %1, -1
  %.not35 = icmp eq ptr %0, null
  %wide.trip.count56 = zext i32 %11 to i64
  br i1 %.not35, label %.lr.ph.us.us, label %.lr.ph.us

.lr.ph.us.us:                                     ; preds = %.split.us, %._crit_edge.split.us.us.us
  %.pre58 = load float, ptr %4, align 4, !tbaa !3
  br label %12

12:                                               ; preds = %Abc_TtSwapAdjacent.exit.us.us.us, %.lr.ph.us.us
  %13 = phi float [ %23, %Abc_TtSwapAdjacent.exit.us.us.us ], [ %.pre58, %.lr.ph.us.us ]
  %indvars.iv53 = phi i64 [ %indvars.iv.next54, %Abc_TtSwapAdjacent.exit.us.us.us ], [ 0, %.lr.ph.us.us ]
  %.03138.us.us.us = phi i32 [ %.1.us.us.us, %Abc_TtSwapAdjacent.exit.us.us.us ], [ 0, %.lr.ph.us.us ]
  %indvars.iv.next54 = add nuw nsw i64 %indvars.iv53, 1
  %14 = getelementptr inbounds nuw float, ptr %4, i64 %indvars.iv.next54
  %15 = load float, ptr %14, align 4, !tbaa !3
  %16 = fcmp ult float %13, %15
  br i1 %16, label %17, label %Abc_TtSwapAdjacent.exit.us.us.us

17:                                               ; preds = %12
  %18 = getelementptr inbounds nuw float, ptr %4, i64 %indvars.iv53
  store float %15, ptr %18, align 4, !tbaa !3
  store float %13, ptr %14, align 4, !tbaa !3
  %19 = getelementptr inbounds nuw i32, ptr %5, i64 %indvars.iv53
  %20 = load i32, ptr %19, align 4, !tbaa !7
  %21 = getelementptr inbounds nuw i32, ptr %5, i64 %indvars.iv.next54
  %22 = load i32, ptr %21, align 4, !tbaa !7
  store i32 %22, ptr %19, align 4, !tbaa !7
  store i32 %20, ptr %21, align 4, !tbaa !7
  br label %Abc_TtSwapAdjacent.exit.us.us.us

Abc_TtSwapAdjacent.exit.us.us.us:                 ; preds = %17, %12
  %23 = phi float [ %15, %12 ], [ %13, %17 ]
  %.1.us.us.us = phi i32 [ %.03138.us.us.us, %12 ], [ 1, %17 ]
  %exitcond57.not = icmp eq i64 %indvars.iv.next54, %wide.trip.count56
  br i1 %exitcond57.not, label %._crit_edge.split.us.us.us, label %12, !llvm.loop !9

._crit_edge.split.us.us.us:                       ; preds = %Abc_TtSwapAdjacent.exit.us.us.us
  %.not.not.us.us = icmp eq i32 %.1.us.us.us, 0
  br i1 %.not.not.us.us, label %.split48.us, label %.lr.ph.us.us

.lr.ph.us:                                        ; preds = %.split.us, %._crit_edge.split.us44
  %.pre = load float, ptr %4, align 4, !tbaa !3
  br label %24

24:                                               ; preds = %.lr.ph.us, %Abc_TtSwapAdjacent.exit.us42
  %25 = phi float [ %.pre, %.lr.ph.us ], [ %82, %Abc_TtSwapAdjacent.exit.us42 ]
  %indvars.iv = phi i64 [ 0, %.lr.ph.us ], [ %indvars.iv.next, %Abc_TtSwapAdjacent.exit.us42 ]
  %.03138.us41 = phi i32 [ 0, %.lr.ph.us ], [ %.1.us43, %Abc_TtSwapAdjacent.exit.us42 ]
  %indvars.iv.next = add nuw nsw i64 %indvars.iv, 1
  %26 = getelementptr inbounds nuw float, ptr %4, i64 %indvars.iv.next
  %27 = load float, ptr %26, align 4, !tbaa !3
  %28 = fcmp ult float %25, %27
  br i1 %28, label %29, label %Abc_TtSwapAdjacent.exit.us42

29:                                               ; preds = %24
  %30 = getelementptr inbounds nuw float, ptr %4, i64 %indvars.iv
  store float %27, ptr %30, align 4, !tbaa !3
  store float %25, ptr %26, align 4, !tbaa !3
  %31 = getelementptr inbounds nuw i32, ptr %5, i64 %indvars.iv
  %32 = load i32, ptr %31, align 4, !tbaa !7
  %33 = getelementptr inbounds nuw i32, ptr %5, i64 %indvars.iv.next
  %34 = load i32, ptr %33, align 4, !tbaa !7
  store i32 %34, ptr %31, align 4, !tbaa !7
  store i32 %32, ptr %33, align 4, !tbaa !7
  %35 = icmp samesign ult i64 %indvars.iv, 5
  br i1 %35, label %62, label %36

36:                                               ; preds = %29
  %37 = icmp eq i64 %indvars.iv, 5
  br i1 %37, label %55, label %38

38:                                               ; preds = %36
  %39 = icmp samesign ult i64 %indvars.iv, 7
  %40 = trunc i64 %indvars.iv to i32
  %41 = add i32 %40, -6
  %42 = shl nuw i32 1, %41
  %43 = select i1 %39, i32 1, i32 %42
  br i1 %10, label %.preheader.lr.ph.i.us, label %Abc_TtSwapAdjacent.exit.us42

.preheader.lr.ph.i.us:                            ; preds = %38
  %44 = icmp sgt i32 %43, 0
  %45 = shl nsw i32 %43, 2
  %46 = sext i32 %45 to i64
  br i1 %44, label %.preheader.us.preheader.i.us, label %Abc_TtSwapAdjacent.exit.us42

.preheader.us.preheader.i.us:                     ; preds = %.preheader.lr.ph.i.us
  %47 = shl nuw nsw i32 %43, 1
  %48 = zext nneg i32 %43 to i64
  %49 = zext nneg i32 %47 to i64
  br label %.preheader.us.i.us

.preheader.us.i.us:                               ; preds = %._crit_edge.us.i.us, %.preheader.us.preheader.i.us
  %.061.us.i.us = phi ptr [ %53, %._crit_edge.us.i.us ], [ %0, %.preheader.us.preheader.i.us ]
  %invariant.gep.i.us = getelementptr inbounds nuw i64, ptr %.061.us.i.us, i64 %48
  %invariant.gep76.i.us = getelementptr inbounds nuw i64, ptr %.061.us.i.us, i64 %49
  br label %50

50:                                               ; preds = %50, %.preheader.us.i.us
  %indvars.iv.i.us = phi i64 [ 0, %.preheader.us.i.us ], [ %indvars.iv.next.i.us, %50 ]
  %gep.i.us = getelementptr inbounds nuw i64, ptr %invariant.gep.i.us, i64 %indvars.iv.i.us
  %51 = load i64, ptr %gep.i.us, align 8, !tbaa !11
  %gep77.i.us = getelementptr inbounds nuw i64, ptr %invariant.gep76.i.us, i64 %indvars.iv.i.us
  %52 = load i64, ptr %gep77.i.us, align 8, !tbaa !11
  store i64 %52, ptr %gep.i.us, align 8, !tbaa !11
  store i64 %51, ptr %gep77.i.us, align 8, !tbaa !11
  %indvars.iv.next.i.us = add nuw nsw i64 %indvars.iv.i.us, 1
  %exitcond.not.i.us = icmp eq i64 %indvars.iv.next.i.us, %48
  br i1 %exitcond.not.i.us, label %._crit_edge.us.i.us, label %50, !llvm.loop !13

._crit_edge.us.i.us:                              ; preds = %50
  %53 = getelementptr inbounds nuw i64, ptr %.061.us.i.us, i64 %46
  %54 = icmp ult ptr %53, %9
  br i1 %54, label %.preheader.us.i.us, label %Abc_TtSwapAdjacent.exit.us42, !llvm.loop !14

55:                                               ; preds = %36
  br i1 %10, label %.lr.ph.i.us, label %Abc_TtSwapAdjacent.exit.us42

.lr.ph.i.us:                                      ; preds = %55, %.lr.ph.i.us
  %.05462.i.us = phi ptr [ %60, %.lr.ph.i.us ], [ %0, %55 ]
  %56 = getelementptr inbounds nuw i8, ptr %.05462.i.us, i64 4
  %57 = load i32, ptr %56, align 4, !tbaa !7
  %58 = getelementptr inbounds nuw i8, ptr %.05462.i.us, i64 8
  %59 = load i32, ptr %58, align 4, !tbaa !7
  store i32 %59, ptr %56, align 4, !tbaa !7
  store i32 %57, ptr %58, align 4, !tbaa !7
  %60 = getelementptr inbounds nuw i8, ptr %.05462.i.us, i64 16
  %61 = icmp ult ptr %60, %9
  br i1 %61, label %.lr.ph.i.us, label %Abc_TtSwapAdjacent.exit.us42, !llvm.loop !15

62:                                               ; preds = %29
  br i1 %10, label %.lr.ph64.i.us, label %Abc_TtSwapAdjacent.exit.us42

.lr.ph64.i.us:                                    ; preds = %62
  %63 = trunc nuw nsw i64 %indvars.iv to i32
  %64 = shl nuw nsw i32 1, %63
  %65 = getelementptr inbounds nuw [5 x [3 x i64]], ptr @s_PMasks, i64 0, i64 %indvars.iv
  %66 = load i64, ptr %65, align 8, !tbaa !11
  %67 = getelementptr inbounds nuw i8, ptr %65, i64 8
  %68 = load i64, ptr %67, align 8, !tbaa !11
  %69 = zext nneg i32 %64 to i64
  %70 = getelementptr inbounds nuw i8, ptr %65, i64 16
  %71 = load i64, ptr %70, align 8, !tbaa !11
  br label %72

72:                                               ; preds = %72, %.lr.ph64.i.us
  %indvars.iv69.i.us = phi i64 [ 0, %.lr.ph64.i.us ], [ %indvars.iv.next70.i.us, %72 ]
  %73 = getelementptr inbounds nuw i64, ptr %0, i64 %indvars.iv69.i.us
  %74 = load i64, ptr %73, align 8, !tbaa !11
  %75 = and i64 %74, %66
  %76 = and i64 %74, %68
  %77 = shl i64 %76, %69
  %78 = or i64 %77, %75
  %79 = and i64 %74, %71
  %80 = lshr i64 %79, %69
  %81 = or i64 %78, %80
  store i64 %81, ptr %73, align 8, !tbaa !11
  %indvars.iv.next70.i.us = add nuw nsw i64 %indvars.iv69.i.us, 1
  %exitcond73.not.i.us = icmp eq i64 %indvars.iv.next70.i.us, %wide.trip.count72.i
  br i1 %exitcond73.not.i.us, label %Abc_TtSwapAdjacent.exit.us42, label %72, !llvm.loop !16

Abc_TtSwapAdjacent.exit.us42:                     ; preds = %._crit_edge.us.i.us, %.lr.ph.i.us, %72, %62, %55, %.preheader.lr.ph.i.us, %38, %24
  %82 = phi float [ %27, %24 ], [ %25, %62 ], [ %25, %55 ], [ %25, %38 ], [ %25, %.preheader.lr.ph.i.us ], [ %25, %72 ], [ %25, %.lr.ph.i.us ], [ %25, %._crit_edge.us.i.us ]
  %.1.us43 = phi i32 [ %.03138.us41, %24 ], [ 1, %62 ], [ 1, %55 ], [ 1, %38 ], [ 1, %.preheader.lr.ph.i.us ], [ 1, %72 ], [ 1, %.lr.ph.i.us ], [ 1, %._crit_edge.us.i.us ]
  %exitcond.not = icmp eq i64 %indvars.iv.next, %wide.trip.count56
  br i1 %exitcond.not, label %._crit_edge.split.us44, label %24, !llvm.loop !9

._crit_edge.split.us44:                           ; preds = %Abc_TtSwapAdjacent.exit.us42
  %.not.not.us = icmp eq i32 %.1.us43, 0
  br i1 %.not.not.us, label %.split48.us, label %.lr.ph.us

.split48.us:                                      ; preds = %._crit_edge.split.us44, %._crit_edge.split.us.us.us, %6
  ret void
}